target datalayout = "e-m:e-p270:32:32-p271:32:32-p272:64:64-i64:64-i128:128-f80:128-n8:16:32:64-S128"
target triple = "x86_64-unknown-linux-gnu"

@.str.10 = private unnamed_addr constant [29 x i8] c"../qemu/system/device_tree.c\00", align 1
@__func__.qemu_fdt_getprop = private unnamed_addr constant [17 x i8] c"qemu_fdt_getprop\00", align 1
@.str.16 = private unnamed_addr constant [27 x i8] c"%s: Couldn't get %s/%s: %s\00", align 1
@.str.39 = private unnamed_addr constant [29 x i8] c"%s Couldn't find node %s: %s\00", align 1
@__func__.findnode_nofail = private unnamed_addr constant [16 x i8] c"findnode_nofail\00", align 1

; Function Attrs: nounwind sspstrong uwtable
define internal i32 @findnode_nofail(ptr noundef %fdt, ptr noundef %node_path) #0 {
entry:
  %fdt.addr = alloca ptr, align 8
  %node_path.addr = alloca ptr, align 8
  %offset = alloca i32, align 4
  store ptr %fdt, ptr %fdt.addr, align 8
  store ptr %node_path, ptr %node_path.addr, align 8
  %0 = load ptr, ptr %fdt.addr, align 8
  %1 = load ptr, ptr %node_path.addr, align 8
  %call = call i32 @fdt_path_offset(ptr noundef %0, ptr noundef %1)
  store i32 %call, ptr %offset, align 4
  %2 = load i32, ptr %offset, align 4
  %cmp = icmp slt i32 %2, 0
  br i1 %cmp, label %if.then, label %if.end

if.then:                                          ; preds = %entry
  %3 = load ptr, ptr %node_path.addr, align 8
  %4 = load i32, ptr %offset, align 4
  %call1 = call ptr @fdt_strerror(i32 noundef %4)
  call void (ptr, ...) @error_report(ptr noundef @.str.39, ptr noundef @__func__.findnode_nofail, ptr noundef %3, ptr noundef %call1)
  call void @exit(i32 noundef 1) #10
  unreachable

if.end:                                           ; preds = %entry
  %5 = load i32, ptr %offset, align 4
  ret i32 %5
}

; Function Attrs: nounwind sspstrong uwtable
define dso_local ptr @qemu_fdt_getprop(ptr noundef %fdt, ptr noundef %node_path, ptr noundef %property, ptr noundef %lenp, ptr noundef %errp) #0 {
entry:
  %fdt.addr = alloca ptr, align 8
  %node_path.addr = alloca ptr, align 8
  %property.addr = alloca ptr, align 8
  %lenp.addr = alloca ptr, align 8
  %errp.addr = alloca ptr, align 8
  %len = alloca i32, align 4
  %r = alloca ptr, align 8
  store ptr %fdt, ptr %fdt.addr, align 8
  store ptr %node_path, ptr %node_path.addr, align 8
  store ptr %property, ptr %property.addr, align 8
  store ptr %lenp, ptr %lenp.addr, align 8
  store ptr %errp, ptr %errp.addr, align 8
  %0 = load ptr, ptr %lenp.addr, align 8
  %tobool = icmp ne ptr %0, null
  br i1 %tobool, label %if.end, label %if.then

if.then:                                          ; preds = %entry
  store ptr %len, ptr %lenp.addr, align 8
  br label %if.end

if.end:                                           ; preds = %if.then, %entry
  %1 = load ptr, ptr %fdt.addr, align 8
  %2 = load ptr, ptr %fdt.addr, align 8
  %3 = load ptr, ptr %node_path.addr, align 8
  %call = call i32 @findnode_nofail(ptr noundef %2, ptr noundef %3)
  %4 = load ptr, ptr %property.addr, align 8
  %5 = load ptr, ptr %lenp.addr, align 8
  %call1 = call ptr @fdt_getprop(ptr noundef %1, i32 noundef %call, ptr noundef %4, ptr noundef %5)
  store ptr %call1, ptr %r, align 8
  %6 = load ptr, ptr %r, align 8
  %tobool2 = icmp ne ptr %6, null
  br i1 %tobool2, label %if.end5, label %if.then3

if.then3:                                         ; preds = %if.end
  %7 = load ptr, ptr %errp.addr, align 8
  %8 = load ptr, ptr %node_path.addr, align 8
  %9 = load ptr, ptr %property.addr, align 8
  %10 = load ptr, ptr %lenp.addr, align 8
  %11 = load i32, ptr %10, align 4
  %call4 = call ptr @fdt_strerror(i32 noundef %11)
  call void (ptr, ptr, i32, ptr, ptr, ...) @error_setg_internal(ptr noundef %7, ptr noundef @.str.10, i32 noundef 443, ptr noundef @__func__.qemu_fdt_getprop, ptr noundef @.str.16, ptr noundef @__func__.qemu_fdt_getprop, ptr noundef %8, ptr noundef %9, ptr noundef %call4)
  br label %if.end5

if.end5:                                          ; preds = %if.then3, %if.end
  %12 = load ptr, ptr %r, align 8
  ret ptr %12
}