; Function Attrs: nounwind sspstrong uwtable
define dso_local ptr @qemu_fdt_getprop(ptr noundef %fdt, ptr noundef %node_path, ptr noundef %property, ptr noundef %lenp, ptr noundef %errp) local_unnamed_addr #0 {
entry:
  %len = alloca i32, align 4
  %tobool.not = icmp eq ptr %lenp, null
  %spec.select = select i1 %tobool.not, ptr %len, ptr %lenp
  %call.i = tail call i32 @fdt_path_offset(ptr noundef %fdt, ptr noundef %node_path) #12
  %cmp.i = icmp slt i32 %call.i, 0
  br i1 %cmp.i, label %if.then.i, label %findnode_nofail.exit

if.then.i:                                        ; preds = %entry
  %call1.i = tail call ptr @fdt_strerror(i32 noundef %call.i) #12
  tail call void (ptr, ...) @error_report(ptr noundef nonnull @.str.39, ptr noundef nonnull @__func__.findnode_nofail, ptr noundef %node_path, ptr noundef %call1.i) #12
  tail call void @exit(i32 noundef 1) #13
  unreachable

findnode_nofail.exit:                             ; preds = %entry
  %call1 = call ptr @fdt_getprop(ptr noundef %fdt, i32 noundef %call.i, ptr noundef %property, ptr noundef nonnull %spec.select) #12
  %tobool2.not = icmp eq ptr %call1, null
  br i1 %tobool2.not, label %if.then3, label %if.end5

if.then3:                                         ; preds = %findnode_nofail.exit
  %0 = load i32, ptr %spec.select, align 4
  %call4 = call ptr @fdt_strerror(i32 noundef %0) #12
  call void (ptr, ptr, i32, ptr, ptr, ...) @error_setg_internal(ptr noundef %errp, ptr noundef nonnull @.str.10, i32 noundef 443, ptr noundef nonnull @__func__.qemu_fdt_getprop, ptr noundef nonnull @.str.16, ptr noundef nonnull @__func__.qemu_fdt_getprop, ptr noundef %node_path, ptr noundef %property, ptr noundef %call4) #12
  br label %if.end5

if.end5:                                          ; preds = %if.then3, %findnode_nofail.exit
  ret ptr %call1
}